target datalayout = "e-m:e-p270:32:32-p271:32:32-p272:64:64-i64:64-i128:128-f80:128-n8:16:32:64-S128"
target triple = "x86_64-pc-linux-gnu"

%struct._psqlSettings = type { ptr, i32, ptr, i8, ptr, ptr, %struct.printQueryOpt, ptr, ptr, ptr, i8, i8, i32, i32, ptr, ptr, i8, [4 x ptr], i8, i32, ptr, i8, i32, ptr, ptr, i64, i64, i8, ptr, ptr, ptr, i8, i8, i8, i8, i8, i8, i8, i32, i32, i32, i32, i32, i32, i32, i32, ptr, ptr, ptr, i32, i8, i32 }
%struct.printQueryOpt = type { %struct.printTableOpt, ptr, ptr, ptr, i8, ptr, i32 }
%struct.printTableOpt = type { i32, i16, i32, i32, i16, i16, i32, i8, i8, i8, i8, i64, ptr, %struct.separator, %struct.separator, [2 x i8], i8, ptr, i32, i32, i32, i32, i32, i32 }
%struct.separator = type { ptr, i8 }

@pset = external global %struct._psqlSettings, align 8
@.str.21 = private unnamed_addr constant [7 x i8] c"format\00", align 1
@.str.22 = private unnamed_addr constant [8 x i8] c"aligned\00", align 1
@.str.25 = private unnamed_addr constant [5 x i8] c"html\00", align 1

; Function Attrs: nounwind uwtable
define internal i32 @exec_command_html(ptr noundef %0, i1 noundef zeroext %1) #0 {
  %3 = alloca ptr, align 8
  %4 = alloca i8, align 1
  %5 = alloca i8, align 1
  store ptr %0, ptr %3, align 8
  %6 = zext i1 %1 to i8
  store i8 %6, ptr %4, align 1
  call void @llvm.lifetime.start.p0(i64 1, ptr %5) #10
  store i8 1, ptr %5, align 1
  %7 = load i8, ptr %4, align 1, !range !4, !noundef !5
  %8 = trunc i8 %7 to i1
  br i1 %8, label %9, label %23

9:                                                ; preds = %2
  %10 = load i32, ptr getelementptr inbounds nuw (%struct._psqlSettings, ptr @pset, i32 0, i32 6), align 8
  %11 = icmp ne i32 %10, 4
  br i1 %11, label %12, label %17

12:                                               ; preds = %9
  %13 = load i8, ptr getelementptr inbounds nuw (%struct._psqlSettings, ptr @pset, i32 0, i32 33), align 2, !range !4, !noundef !5
  %14 = trunc i8 %13 to i1
  %15 = call zeroext i1 @do_pset(ptr noundef @.str.21, ptr noundef @.str.25, ptr noundef getelementptr inbounds nuw (%struct._psqlSettings, ptr @pset, i32 0, i32 6), i1 noundef zeroext %14)
  %16 = zext i1 %15 to i8
  store i8 %16, ptr %5, align 1
  br label %22

17:                                               ; preds = %9
  %18 = load i8, ptr getelementptr inbounds nuw (%struct._psqlSettings, ptr @pset, i32 0, i32 33), align 2, !range !4, !noundef !5
  %19 = trunc i8 %18 to i1
  %20 = call zeroext i1 @do_pset(ptr noundef @.str.21, ptr noundef @.str.22, ptr noundef getelementptr inbounds nuw (%struct._psqlSettings, ptr @pset, i32 0, i32 6), i1 noundef zeroext %19)
  %21 = zext i1 %20 to i8
  store i8 %21, ptr %5, align 1
  br label %22

22:                                               ; preds = %17, %12
  br label %23

23:                                               ; preds = %22, %2
  %24 = load i8, ptr %5, align 1, !range !4, !noundef !5
  %25 = trunc i8 %24 to i1
  %26 = select i1 %25, i32 2, i32 5
  call void @llvm.lifetime.end.p0(i64 1, ptr %5) #10
  ret i32 %26
}