; Function Attrs: nounwind uwtable
define internal fastcc range(i32 2, 6) i32 @exec_command_html(i1 noundef zeroext %0) unnamed_addr #0 {
  br i1 %0, label %2, label %.thread

2:                                                ; preds = %1
  %3 = load i32, ptr getelementptr inbounds nuw (i8, ptr @pset, i64 48), align 8
  %.not = icmp eq i32 %3, 4
  %4 = load i8, ptr getelementptr inbounds nuw (i8, ptr @pset, i64 402), align 2, !range !4, !noundef !5
  %5 = trunc nuw i8 %4 to i1
  br i1 %.not, label %8, label %6

6:                                                ; preds = %2
  %7 = tail call zeroext i1 @do_pset(ptr noundef nonnull @.str.21, ptr noundef nonnull @.str.25, ptr noundef nonnull getelementptr inbounds nuw (i8, ptr @pset, i64 48), i1 noundef zeroext %5)
  %cond.fr3 = freeze i1 %7
  br i1 %cond.fr3, label %.thread, label %10

8:                                                ; preds = %2
  %9 = tail call zeroext i1 @do_pset(ptr noundef nonnull @.str.21, ptr noundef nonnull @.str.22, ptr noundef nonnull getelementptr inbounds nuw (i8, ptr @pset, i64 48), i1 noundef zeroext %5)
  %cond.fr = freeze i1 %9
  br i1 %cond.fr, label %.thread, label %10

.thread:                                          ; preds = %1, %6, %8
  br label %10

10:                                               ; preds = %6, %8, %.thread
  %11 = phi i32 [ 2, %.thread ], [ 5, %8 ], [ 5, %6 ]
  ret i32 %11
}